target datalayout = "e-m:e-p270:32:32-p271:32:32-p272:64:64-i64:64-i128:128-f80:128-n8:16:32:64-S128"
target triple = "x86_64-unknown-linux-gnu"

%"struct.net::HpackPrefix" = type { i8, i64 }
%"class.net::HpackDecoder" = type { %"class.net::HpackDecoderInterface", %"class.net::HpackHeaderTable", %"class.std::__cxx11::basic_string", %"class.net::SpdyHeaderBlock", %"class.std::__cxx11::basic_string", %"class.std::__cxx11::basic_string", ptr, i64, i64, i32, i8, i8, i8, i8 }
%"class.net::HpackDecoderInterface" = type { ptr }
%"class.net::HpackHeaderTable" = type { ptr, %"class.std::deque", ptr, ptr, %"class.std::unordered_set", %"class.std::unordered_map", i64, i64, i64, i64, %"class.std::unique_ptr" }
%"class.std::deque" = type { %"class.std::_Deque_base" }
%"class.std::_Deque_base" = type { %"struct.std::_Deque_base<net::HpackEntry, std::allocator<net::HpackEntry>>::_Deque_impl" }
%"struct.std::_Deque_base<net::HpackEntry, std::allocator<net::HpackEntry>>::_Deque_impl" = type { %"struct.std::_Deque_base<net::HpackEntry, std::allocator<net::HpackEntry>>::_Deque_impl_data" }
%"struct.std::_Deque_base<net::HpackEntry, std::allocator<net::HpackEntry>>::_Deque_impl_data" = type { ptr, i64, %"struct.std::_Deque_iterator", %"struct.std::_Deque_iterator" }
%"struct.std::_Deque_iterator" = type { ptr, ptr, ptr, ptr }
%"class.std::unordered_set" = type { %"class.std::_Hashtable" }
%"class.std::_Hashtable" = type { ptr, i64, %"struct.std::__detail::_Hash_node_base", i64, %"struct.std::__detail::_Prime_rehash_policy", ptr }
%"struct.std::__detail::_Hash_node_base" = type { ptr }
%"struct.std::__detail::_Prime_rehash_policy" = type { float, i64 }
%"class.std::unordered_map" = type { %"class.std::_Hashtable.5" }
%"class.std::_Hashtable.5" = type { ptr, i64, %"struct.std::__detail::_Hash_node_base", i64, %"struct.std::__detail::_Prime_rehash_policy", ptr }
%"class.std::unique_ptr" = type { %"struct.std::__uniq_ptr_data" }
%"struct.std::__uniq_ptr_data" = type { %"class.std::__uniq_ptr_impl" }
%"class.std::__uniq_ptr_impl" = type { %"class.std::tuple" }
%"class.std::tuple" = type { %"struct.std::_Tuple_impl" }
%"struct.std::_Tuple_impl" = type { %"struct.std::_Head_base.21" }
%"struct.std::_Head_base.21" = type { ptr }
%"class.net::SpdyHeaderBlock" = type { %class.linked_hash_map, %"class.std::unique_ptr.42" }
%class.linked_hash_map = type { %"class.std::unordered_map.25", %"class.std::__cxx11::list" }
%"class.std::unordered_map.25" = type { %"class.std::_Hashtable.26" }
%"class.std::_Hashtable.26" = type { ptr, i64, %"struct.std::__detail::_Hash_node_base", i64, %"struct.std::__detail::_Prime_rehash_policy", ptr }
%"class.std::__cxx11::list" = type { %"class.std::__cxx11::_List_base" }
%"class.std::__cxx11::_List_base" = type { %"struct.std::__cxx11::_List_base<std::pair<base::BasicStringPiece<std::string>, base::BasicStringPiece<std::string>>, std::allocator<std::pair<base::BasicStringPiece<std::string>, base::BasicStringPiece<std::string>>>>::_List_impl" }
%"struct.std::__cxx11::_List_base<std::pair<base::BasicStringPiece<std::string>, base::BasicStringPiece<std::string>>, std::allocator<std::pair<base::BasicStringPiece<std::string>, base::BasicStringPiece<std::string>>>>::_List_impl" = type { %"struct.std::__detail::_List_node_header" }
%"struct.std::__detail::_List_node_header" = type { %"struct.std::__detail::_List_node_base", i64 }
%"struct.std::__detail::_List_node_base" = type { ptr, ptr }
%"class.std::unique_ptr.42" = type { %"struct.std::__uniq_ptr_data.43" }
%"struct.std::__uniq_ptr_data.43" = type { %"class.std::__uniq_ptr_impl.44" }
%"class.std::__uniq_ptr_impl.44" = type { %"class.std::tuple.45" }
%"class.std::tuple.45" = type { %"struct.std::_Tuple_impl.46" }
%"struct.std::_Tuple_impl.46" = type { %"struct.std::_Head_base.49" }
%"struct.std::_Head_base.49" = type { ptr }
%"class.std::__cxx11::basic_string" = type { %"struct.std::__cxx11::basic_string<char>::_Alloc_hider", i64, %union.anon }
%"struct.std::__cxx11::basic_string<char>::_Alloc_hider" = type { ptr }
%union.anon = type { i64, [8 x i8] }
%"class.base::BasicStringPiece" = type { ptr, i64 }
%"class.net::HpackEntry" = type { %"class.std::__cxx11::basic_string", %"class.std::__cxx11::basic_string", %"class.base::BasicStringPiece", %"class.base::BasicStringPiece", i64, i32, i64 }

@_ZN3netL28kStringLiteralHuffmanEncodedE = internal constant %"struct.net::HpackPrefix" { i8 1, i64 1 }, align 8
@_ZN3netL29kStringLiteralIdentityEncodedE = internal constant %"struct.net::HpackPrefix" { i8 0, i64 1 }, align 8

; Function Attrs: mustprogress nounwind uwtable
define linkonce_odr dso_local { ptr, i64 } @_ZNK3net10HpackEntry4nameB5cxx11Ev(ptr noundef nonnull align 8 dereferenceable(120) %this) #1 comdat align 2 {
entry:
  %retval = alloca %"class.base::BasicStringPiece", align 8
  %this.addr = alloca ptr, align 8
  store ptr %this, ptr %this.addr, align 8
  %this1 = load ptr, ptr %this.addr, align 8
  %name_ref_ = getelementptr inbounds %"class.net::HpackEntry", ptr %this1, i32 0, i32 2
  call void @llvm.memcpy.p0.p0.i64(ptr align 8 %retval, ptr align 8 %name_ref_, i64 16, i1 false)
  %0 = load { ptr, i64 }, ptr %retval, align 8
  ret { ptr, i64 } %0
}

; Function Attrs: mustprogress nounwind uwtable
define linkonce_odr dso_local noundef zeroext i1 @_ZNK3net10HpackEntry8IsStaticEv(ptr noundef nonnull align 8 dereferenceable(120) %this) #1 comdat align 2 {
entry:
  %this.addr = alloca ptr, align 8
  store ptr %this, ptr %this.addr, align 8
  %this1 = load ptr, ptr %this.addr, align 8
  %type_ = getelementptr inbounds %"class.net::HpackEntry", ptr %this1, i32 0, i32 5
  %0 = load i32, ptr %type_, align 8
  %cmp = icmp eq i32 %0, 2
  ret i1 %cmp
}

; Function Attrs: mustprogress uwtable
define dso_local noundef zeroext i1 @_ZN3net12HpackDecoder23DecodeNextStringLiteralEPNS_16HpackInputStreamEbPN4base16BasicStringPieceINSt7__cxx1112basic_stringIcSt11char_traitsIcESaIcEEEEE(ptr noundef nonnull align 8 dereferenceable(480) %this, ptr noundef %input_stream, i1 noundef zeroext %is_key, ptr noundef %output) #0 align 2 {
entry:
  %retval = alloca i1, align 1
  %this.addr = alloca ptr, align 8
  %input_stream.addr = alloca ptr, align 8
  %is_key.addr = alloca i8, align 1
  %output.addr = alloca ptr, align 8
  %agg.tmp = alloca %"struct.net::HpackPrefix", align 8
  %buffer = alloca ptr, align 8
  %result = alloca i8, align 1
  %ref.tmp = alloca %"class.base::BasicStringPiece", align 8
  %agg.tmp5 = alloca %"struct.net::HpackPrefix", align 8
  store ptr %this, ptr %this.addr, align 8
  store ptr %input_stream, ptr %input_stream.addr, align 8
  %frombool = zext i1 %is_key to i8
  store i8 %frombool, ptr %is_key.addr, align 1
  store ptr %output, ptr %output.addr, align 8
  %this1 = load ptr, ptr %this.addr, align 8
  %0 = load ptr, ptr %input_stream.addr, align 8
  call void @llvm.memcpy.p0.p0.i64(ptr align 8 %agg.tmp, ptr align 8 @_ZN3netL28kStringLiteralHuffmanEncodedE, i64 16, i1 false)
  %1 = getelementptr inbounds { i8, i64 }, ptr %agg.tmp, i32 0, i32 0
  %2 = load i8, ptr %1, align 8
  %3 = getelementptr inbounds { i8, i64 }, ptr %agg.tmp, i32 0, i32 1
  %4 = load i64, ptr %3, align 8
  %call = call noundef zeroext i1 @_ZN3net16HpackInputStream21MatchPrefixAndConsumeENS_11HpackPrefixE(ptr noundef nonnull align 8 dereferenceable(33) %0, i8 %2, i64 %4)
  br i1 %call, label %if.then, label %if.end

if.then:                                          ; preds = %entry
  %5 = load i8, ptr %is_key.addr, align 1
  %tobool = trunc i8 %5 to i1
  br i1 %tobool, label %cond.true, label %cond.false

cond.true:                                        ; preds = %if.then
  %key_buffer_ = getelementptr inbounds %"class.net::HpackDecoder", ptr %this1, i32 0, i32 4
  br label %cond.end

cond.false:                                       ; preds = %if.then
  %value_buffer_ = getelementptr inbounds %"class.net::HpackDecoder", ptr %this1, i32 0, i32 5
  br label %cond.end

cond.end:                                         ; preds = %cond.false, %cond.true
  %cond = phi ptr [ %key_buffer_, %cond.true ], [ %value_buffer_, %cond.false ]
  store ptr %cond, ptr %buffer, align 8
  %6 = load ptr, ptr %input_stream.addr, align 8
  %7 = load ptr, ptr %buffer, align 8
  %call2 = call noundef zeroext i1 @_ZN3net16HpackInputStream23DecodeNextHuffmanStringEPNSt7__cxx1112basic_stringIcSt11char_traitsIcESaIcEEE(ptr noundef nonnull align 8 dereferenceable(33) %6, ptr noundef %7)
  %frombool3 = zext i1 %call2 to i8
  store i8 %frombool3, ptr %result, align 1
  %8 = load ptr, ptr %buffer, align 8
  call void @_ZN4base16BasicStringPieceINSt7__cxx1112basic_stringIcSt11char_traitsIcESaIcEEEEC1ERKS6_(ptr noundef nonnull align 8 dereferenceable(16) %ref.tmp, ptr noundef nonnull align 8 dereferenceable(32) %8)
  %9 = load ptr, ptr %output.addr, align 8
  call void @llvm.memcpy.p0.p0.i64(ptr align 8 %9, ptr align 8 %ref.tmp, i64 16, i1 false)
  %10 = load i8, ptr %result, align 1
  %tobool4 = trunc i8 %10 to i1
  store i1 %tobool4, ptr %retval, align 1
  br label %return

if.end:                                           ; preds = %entry
  %11 = load ptr, ptr %input_stream.addr, align 8
  call void @llvm.memcpy.p0.p0.i64(ptr align 8 %agg.tmp5, ptr align 8 @_ZN3netL29kStringLiteralIdentityEncodedE, i64 16, i1 false)
  %12 = getelementptr inbounds { i8, i64 }, ptr %agg.tmp5, i32 0, i32 0
  %13 = load i8, ptr %12, align 8
  %14 = getelementptr inbounds { i8, i64 }, ptr %agg.tmp5, i32 0, i32 1
  %15 = load i64, ptr %14, align 8
  %call6 = call noundef zeroext i1 @_ZN3net16HpackInputStream21MatchPrefixAndConsumeENS_11HpackPrefixE(ptr noundef nonnull align 8 dereferenceable(33) %11, i8 %13, i64 %15)
  br i1 %call6, label %if.then7, label %if.end9

if.then7:                                         ; preds = %if.end
  %16 = load ptr, ptr %input_stream.addr, align 8
  %17 = load ptr, ptr %output.addr, align 8
  %call8 = call noundef zeroext i1 @_ZN3net16HpackInputStream24DecodeNextIdentityStringEPN4base16BasicStringPieceINSt7__cxx1112basic_stringIcSt11char_traitsIcESaIcEEEEE(ptr noundef nonnull align 8 dereferenceable(33) %16, ptr noundef %17)
  store i1 %call8, ptr %retval, align 1
  br label %return

if.end9:                                          ; preds = %if.end
  store i1 false, ptr %retval, align 1
  br label %return

return:                                           ; preds = %if.end9, %if.then7, %cond.end
  %18 = load i1, ptr %retval, align 1
  ret i1 %18
}

; Function Attrs: mustprogress uwtable
define dso_local noundef zeroext i1 @_ZN3net12HpackDecoder14DecodeNextNameEPNS_16HpackInputStreamEPN4base16BasicStringPieceINSt7__cxx1112basic_stringIcSt11char_traitsIcESaIcEEEEE(ptr noundef nonnull align 8 dereferenceable(480) %this, ptr noundef %input_stream, ptr noundef %next_name) #0 align 2 {
entry:
  %retval = alloca i1, align 1
  %this.addr = alloca ptr, align 8
  %input_stream.addr = alloca ptr, align 8
  %next_name.addr = alloca ptr, align 8
  %index_or_zero = alloca i32, align 4
  %entry5 = alloca ptr, align 8
  %ref.tmp = alloca %"class.base::BasicStringPiece", align 8
  %ref.tmp13 = alloca %"class.base::BasicStringPiece", align 8
  %ref.tmp16 = alloca %"class.base::BasicStringPiece", align 8
  %ref.tmp20 = alloca %"class.base::BasicStringPiece", align 8
  store ptr %this, ptr %this.addr, align 8
  store ptr %input_stream, ptr %input_stream.addr, align 8
  store ptr %next_name, ptr %next_name.addr, align 8
  %this1 = load ptr, ptr %this.addr, align 8
  store i32 0, ptr %index_or_zero, align 4
  %0 = load ptr, ptr %input_stream.addr, align 8
  %call = call noundef zeroext i1 @_ZN3net16HpackInputStream16DecodeNextUint32EPj(ptr noundef nonnull align 8 dereferenceable(33) %0, ptr noundef %index_or_zero)
  br i1 %call, label %if.end, label %if.then

if.then:                                          ; preds = %entry
  store i1 false, ptr %retval, align 1
  br label %return

if.end:                                           ; preds = %entry
  %1 = load i32, ptr %index_or_zero, align 4
  %cmp = icmp eq i32 %1, 0
  br i1 %cmp, label %if.then2, label %if.end4

if.then2:                                         ; preds = %if.end
  %2 = load ptr, ptr %input_stream.addr, align 8
  %3 = load ptr, ptr %next_name.addr, align 8
  %call3 = call noundef zeroext i1 @_ZN3net12HpackDecoder23DecodeNextStringLiteralEPNS_16HpackInputStreamEbPN4base16BasicStringPieceINSt7__cxx1112basic_stringIcSt11char_traitsIcESaIcEEEEE(ptr noundef nonnull align 8 dereferenceable(480) %this1, ptr noundef %2, i1 noundef zeroext true, ptr noundef %3)
  store i1 %call3, ptr %retval, align 1
  br label %return

if.end4:                                          ; preds = %if.end
  %header_table_ = getelementptr inbounds %"class.net::HpackDecoder", ptr %this1, i32 0, i32 1
  %4 = load i32, ptr %index_or_zero, align 4
  %conv = zext i32 %4 to i64
  %call6 = call noundef ptr @_ZN3net16HpackHeaderTable10GetByIndexEm(ptr noundef nonnull align 8 dereferenceable(256) %header_table_, i64 noundef %conv)
  store ptr %call6, ptr %entry5, align 8
  %5 = load ptr, ptr %entry5, align 8
  %cmp7 = icmp eq ptr %5, null
  br i1 %cmp7, label %if.then8, label %if.end9

if.then8:                                         ; preds = %if.end4
  store i1 false, ptr %retval, align 1
  br label %return

if.end9:                                          ; preds = %if.end4
  %6 = load ptr, ptr %entry5, align 8
  %call10 = call noundef zeroext i1 @_ZNK3net10HpackEntry8IsStaticEv(ptr noundef nonnull align 8 dereferenceable(120) %6)
  br i1 %call10, label %if.then11, label %if.else

if.then11:                                        ; preds = %if.end9
  %7 = load ptr, ptr %entry5, align 8
  %call12 = call { ptr, i64 } @_ZNK3net10HpackEntry4nameB5cxx11Ev(ptr noundef nonnull align 8 dereferenceable(120) %7)
  %8 = getelementptr inbounds { ptr, i64 }, ptr %ref.tmp, i32 0, i32 0
  %9 = extractvalue { ptr, i64 } %call12, 0
  store ptr %9, ptr %8, align 8
  %10 = getelementptr inbounds { ptr, i64 }, ptr %ref.tmp, i32 0, i32 1
  %11 = extractvalue { ptr, i64 } %call12, 1
  store i64 %11, ptr %10, align 8
  %12 = load ptr, ptr %next_name.addr, align 8
  call void @llvm.memcpy.p0.p0.i64(ptr align 8 %12, ptr align 8 %ref.tmp, i64 16, i1 false)
  br label %if.end22

if.else:                                          ; preds = %if.end9
  %key_buffer_ = getelementptr inbounds %"class.net::HpackDecoder", ptr %this1, i32 0, i32 4
  %13 = load ptr, ptr %entry5, align 8
  %call14 = call { ptr, i64 } @_ZNK3net10HpackEntry4nameB5cxx11Ev(ptr noundef nonnull align 8 dereferenceable(120) %13)
  %14 = getelementptr inbounds { ptr, i64 }, ptr %ref.tmp13, i32 0, i32 0
  %15 = extractvalue { ptr, i64 } %call14, 0
  store ptr %15, ptr %14, align 8
  %16 = getelementptr inbounds { ptr, i64 }, ptr %ref.tmp13, i32 0, i32 1
  %17 = extractvalue { ptr, i64 } %call14, 1
  store i64 %17, ptr %16, align 8
  %call15 = call noundef ptr @_ZNK4base16BasicStringPieceINSt7__cxx1112basic_stringIcSt11char_traitsIcESaIcEEEE4dataEv(ptr noundef nonnull align 8 dereferenceable(16) %ref.tmp13)
  %18 = load ptr, ptr %entry5, align 8
  %call17 = call { ptr, i64 } @_ZNK3net10HpackEntry4nameB5cxx11Ev(ptr noundef nonnull align 8 dereferenceable(120) %18)
  %19 = getelementptr inbounds { ptr, i64 }, ptr %ref.tmp16, i32 0, i32 0
  %20 = extractvalue { ptr, i64 } %call17, 0
  store ptr %20, ptr %19, align 8
  %21 = getelementptr inbounds { ptr, i64 }, ptr %ref.tmp16, i32 0, i32 1
  %22 = extractvalue { ptr, i64 } %call17, 1
  store i64 %22, ptr %21, align 8
  %call18 = call noundef i64 @_ZNK4base16BasicStringPieceINSt7__cxx1112basic_stringIcSt11char_traitsIcESaIcEEEE4sizeEv(ptr noundef nonnull align 8 dereferenceable(16) %ref.tmp16)
  %call19 = call noundef nonnull align 8 dereferenceable(32) ptr @_ZNSt7__cxx1112basic_stringIcSt11char_traitsIcESaIcEE6assignEPKcm(ptr noundef nonnull align 8 dereferenceable(32) %key_buffer_, ptr noundef %call15, i64 noundef %call18)
  %key_buffer_21 = getelementptr inbounds %"class.net::HpackDecoder", ptr %this1, i32 0, i32 4
  call void @_ZN4base16BasicStringPieceINSt7__cxx1112basic_stringIcSt11char_traitsIcESaIcEEEEC1ERKS6_(ptr noundef nonnull align 8 dereferenceable(16) %ref.tmp20, ptr noundef nonnull align 8 dereferenceable(32) %key_buffer_21)
  %23 = load ptr, ptr %next_name.addr, align 8
  call void @llvm.memcpy.p0.p0.i64(ptr align 8 %23, ptr align 8 %ref.tmp20, i64 16, i1 false)
  br label %if.end22

if.end22:                                         ; preds = %if.else, %if.then11
  store i1 true, ptr %retval, align 1
  br label %return

return:                                           ; preds = %if.end22, %if.then8, %if.then2, %if.then
  %24 = load i1, ptr %retval, align 1
  ret i1 %24
}