; Function Attrs: mustprogress uwtable
define dso_local noundef zeroext i1 @_ZN3net12HpackDecoder14DecodeNextNameEPNS_16HpackInputStreamEPN4base16BasicStringPieceINSt7__cxx1112basic_stringIcSt11char_traitsIcESaIcEEEEE(ptr noundef nonnull align 8 dereferenceable(480) %this, ptr noundef nonnull %input_stream, ptr noundef %next_name) local_unnamed_addr #0 align 2 {
entry:
  %ref.tmp.i = alloca %"class.base::BasicStringPiece", align 8
  %index_or_zero = alloca i32, align 4
  %ref.tmp13 = alloca %"class.base::BasicStringPiece", align 8
  %ref.tmp16 = alloca %"class.base::BasicStringPiece", align 8
  %ref.tmp20 = alloca %"class.base::BasicStringPiece", align 8
  store i32 0, ptr %index_or_zero, align 4
  %call = call noundef zeroext i1 @_ZN3net16HpackInputStream16DecodeNextUint32EPj(ptr noundef nonnull align 8 dereferenceable(33) %input_stream, ptr noundef nonnull %index_or_zero)
  br i1 %call, label %if.end, label %return

if.end:                                           ; preds = %entry
  %0 = load i32, ptr %index_or_zero, align 4
  %cmp = icmp eq i32 %0, 0
  br i1 %cmp, label %if.then2, label %if.end4

if.then2:                                         ; preds = %if.end
  call void @llvm.lifetime.start.p0(i64 16, ptr nonnull %ref.tmp.i)
  %call.i = call noundef zeroext i1 @_ZN3net16HpackInputStream21MatchPrefixAndConsumeENS_11HpackPrefixE(ptr noundef nonnull align 8 dereferenceable(33) %input_stream, i8 1, i64 1)
  br i1 %call.i, label %if.then.i, label %if.end.i

if.then.i:                                        ; preds = %if.then2
  %cond.i = getelementptr inbounds i8, ptr %this, i64 384
  %call2.i = call noundef zeroext i1 @_ZN3net16HpackInputStream23DecodeNextHuffmanStringEPNSt7__cxx1112basic_stringIcSt11char_traitsIcESaIcEEE(ptr noundef nonnull align 8 dereferenceable(33) %input_stream, ptr noundef nonnull %cond.i)
  call void @_ZN4base16BasicStringPieceINSt7__cxx1112basic_stringIcSt11char_traitsIcESaIcEEEEC1ERKS6_(ptr noundef nonnull align 8 dereferenceable(16) %ref.tmp.i, ptr noundef nonnull align 8 dereferenceable(32) %cond.i)
  call void @llvm.memcpy.p0.p0.i64(ptr noundef nonnull align 8 dereferenceable(16) %next_name, ptr noundef nonnull align 8 dereferenceable(16) %ref.tmp.i, i64 16, i1 false)
  br label %_ZN3net12HpackDecoder23DecodeNextStringLiteralEPNS_16HpackInputStreamEbPN4base16BasicStringPieceINSt7__cxx1112basic_stringIcSt11char_traitsIcESaIcEEEEE.exit

if.end.i:                                         ; preds = %if.then2
  %call6.i = call noundef zeroext i1 @_ZN3net16HpackInputStream21MatchPrefixAndConsumeENS_11HpackPrefixE(ptr noundef nonnull align 8 dereferenceable(33) %input_stream, i8 0, i64 1)
  br i1 %call6.i, label %if.then7.i, label %_ZN3net12HpackDecoder23DecodeNextStringLiteralEPNS_16HpackInputStreamEbPN4base16BasicStringPieceINSt7__cxx1112basic_stringIcSt11char_traitsIcESaIcEEEEE.exit

if.then7.i:                                       ; preds = %if.end.i
  %call8.i = call noundef zeroext i1 @_ZN3net16HpackInputStream24DecodeNextIdentityStringEPN4base16BasicStringPieceINSt7__cxx1112basic_stringIcSt11char_traitsIcESaIcEEEEE(ptr noundef nonnull align 8 dereferenceable(33) %input_stream, ptr noundef %next_name)
  br label %_ZN3net12HpackDecoder23DecodeNextStringLiteralEPNS_16HpackInputStreamEbPN4base16BasicStringPieceINSt7__cxx1112basic_stringIcSt11char_traitsIcESaIcEEEEE.exit

_ZN3net12HpackDecoder23DecodeNextStringLiteralEPNS_16HpackInputStreamEbPN4base16BasicStringPieceINSt7__cxx1112basic_stringIcSt11char_traitsIcESaIcEEEEE.exit: ; preds = %if.then.i, %if.end.i, %if.then7.i
  %retval.0.i = phi i1 [ %call2.i, %if.then.i ], [ %call8.i, %if.then7.i ], [ false, %if.end.i ]
  call void @llvm.lifetime.end.p0(i64 16, ptr nonnull %ref.tmp.i)
  br label %return

if.end4:                                          ; preds = %if.end
  %header_table_ = getelementptr inbounds i8, ptr %this, i64 8
  %conv = zext i32 %0 to i64
  %call6 = call noundef ptr @_ZN3net16HpackHeaderTable10GetByIndexEm(ptr noundef nonnull align 8 dereferenceable(256) %header_table_, i64 noundef %conv)
  %cmp7 = icmp eq ptr %call6, null
  br i1 %cmp7, label %return, label %if.end9

if.end9:                                          ; preds = %if.end4
  %type_.i = getelementptr inbounds i8, ptr %call6, i64 104
  %1 = load i32, ptr %type_.i, align 8
  %cmp.i = icmp eq i32 %1, 2
  br i1 %cmp.i, label %if.then11, label %if.else

if.then11:                                        ; preds = %if.end9
  %name_ref_.i = getelementptr inbounds i8, ptr %call6, i64 64
  %retval.sroa.0.0.copyload.i = load ptr, ptr %name_ref_.i, align 8
  %retval.sroa.2.0.name_ref_.sroa_idx.i = getelementptr inbounds i8, ptr %call6, i64 72
  %retval.sroa.2.0.copyload.i = load i64, ptr %retval.sroa.2.0.name_ref_.sroa_idx.i, align 8
  store ptr %retval.sroa.0.0.copyload.i, ptr %next_name, align 8
  %ref.tmp.sroa.2.0..sroa_idx = getelementptr inbounds i8, ptr %next_name, i64 8
  store i64 %retval.sroa.2.0.copyload.i, ptr %ref.tmp.sroa.2.0..sroa_idx, align 8
  br label %return

if.else:                                          ; preds = %if.end9
  %key_buffer_ = getelementptr inbounds i8, ptr %this, i64 384
  %name_ref_.i8 = getelementptr inbounds i8, ptr %call6, i64 64
  %retval.sroa.0.0.copyload.i9 = load ptr, ptr %name_ref_.i8, align 8
  %retval.sroa.2.0.name_ref_.sroa_idx.i10 = getelementptr inbounds i8, ptr %call6, i64 72
  %retval.sroa.2.0.copyload.i11 = load i64, ptr %retval.sroa.2.0.name_ref_.sroa_idx.i10, align 8
  store ptr %retval.sroa.0.0.copyload.i9, ptr %ref.tmp13, align 8
  %2 = getelementptr inbounds i8, ptr %ref.tmp13, i64 8
  store i64 %retval.sroa.2.0.copyload.i11, ptr %2, align 8
  %call15 = call noundef ptr @_ZNK4base16BasicStringPieceINSt7__cxx1112basic_stringIcSt11char_traitsIcESaIcEEEE4dataEv(ptr noundef nonnull align 8 dereferenceable(16) %ref.tmp13)
  %retval.sroa.0.0.copyload.i15 = load ptr, ptr %name_ref_.i8, align 8
  %retval.sroa.2.0.copyload.i17 = load i64, ptr %retval.sroa.2.0.name_ref_.sroa_idx.i10, align 8
  store ptr %retval.sroa.0.0.copyload.i15, ptr %ref.tmp16, align 8
  %3 = getelementptr inbounds i8, ptr %ref.tmp16, i64 8
  store i64 %retval.sroa.2.0.copyload.i17, ptr %3, align 8
  %call18 = call noundef i64 @_ZNK4base16BasicStringPieceINSt7__cxx1112basic_stringIcSt11char_traitsIcESaIcEEEE4sizeEv(ptr noundef nonnull align 8 dereferenceable(16) %ref.tmp16)
  %call19 = call noundef nonnull align 8 dereferenceable(32) ptr @_ZNSt7__cxx1112basic_stringIcSt11char_traitsIcESaIcEE6assignEPKcm(ptr noundef nonnull align 8 dereferenceable(32) %key_buffer_, ptr noundef %call15, i64 noundef %call18)
  call void @_ZN4base16BasicStringPieceINSt7__cxx1112basic_stringIcSt11char_traitsIcESaIcEEEEC1ERKS6_(ptr noundef nonnull align 8 dereferenceable(16) %ref.tmp20, ptr noundef nonnull align 8 dereferenceable(32) %key_buffer_)
  call void @llvm.memcpy.p0.p0.i64(ptr noundef nonnull align 8 dereferenceable(16) %next_name, ptr noundef nonnull align 8 dereferenceable(16) %ref.tmp20, i64 16, i1 false)
  br label %return

return:                                           ; preds = %if.then11, %if.else, %if.end4, %entry, %_ZN3net12HpackDecoder23DecodeNextStringLiteralEPNS_16HpackInputStreamEbPN4base16BasicStringPieceINSt7__cxx1112basic_stringIcSt11char_traitsIcESaIcEEEEE.exit
  %retval.0 = phi i1 [ %retval.0.i, %_ZN3net12HpackDecoder23DecodeNextStringLiteralEPNS_16HpackInputStreamEbPN4base16BasicStringPieceINSt7__cxx1112basic_stringIcSt11char_traitsIcESaIcEEEEE.exit ], [ false, %entry ], [ false, %if.end4 ], [ true, %if.else ], [ true, %if.then11 ]
  ret i1 %retval.0
}